; Function Attrs: mustprogress nofree norecurse nosync nounwind willreturn memory(argmem: read) uwtable
define hidden range(i32 -20352, 1) i32 @mbedtls_ecjpake_check(ptr noundef readonly captures(none) %0) local_unnamed_addr #4 {
  %2 = load i32, ptr %0, align 8, !tbaa !3
  %3 = icmp eq i32 %2, 0
  br i1 %3, label %12, label %4

4:                                                ; preds = %1
  %5 = getelementptr inbounds nuw i8, ptr %0, i64 8
  %6 = load i32, ptr %5, align 8, !tbaa !18
  %7 = icmp eq i32 %6, 0
  br i1 %7, label %12, label %8

8:                                                ; preds = %4
  %9 = getelementptr inbounds nuw i8, ptr %0, i64 480
  %10 = load ptr, ptr %9, align 8, !tbaa !19
  %11 = icmp eq ptr %10, null
  %spec.select = select i1 %11, i32 -20352, i32 0
  br label %12

12:                                               ; preds = %8, %1, %4
  %.0 = phi i32 [ -20352, %4 ], [ -20352, %1 ], [ %spec.select, %8 ]
  ret i32 %.0
}